; ModuleID = '55/1111.c'
source_filename = "55/1111.c"
target datalayout = "e-m:e-p270:32:32-p271:32:32-p272:64:64-i64:64-f80:128-n8:16:32:64-S128"
target triple = "x86_64-pc-linux-gnu"

@.str = private unnamed_addr constant [9 x i8] c"%d %s %d\00", align 1
@.str.1 = private unnamed_addr constant [2 x i8] c"0\00", align 1
@.str.2 = private unnamed_addr constant [3 x i8] c"%s\00", align 1

; Function Attrs: noinline nounwind uwtable
define dso_local i32 @main() #0 {
  %1 = alloca i32, align 4
  %2 = alloca i32, align 4
  %3 = alloca i32, align 4
  %4 = alloca i32, align 4
  %5 = alloca i32, align 4
  %6 = alloca i32, align 4
  %7 = alloca i32, align 4
  %8 = alloca i32, align 4
  %9 = alloca [40 x i8], align 16
  %10 = alloca [40 x i32], align 16
  %11 = alloca [40 x i8], align 16
  %12 = alloca [40 x i8], align 16
  store i32 0, i32* %1, align 4
  store i32 0, i32* %8, align 4
  %13 = getelementptr inbounds [40 x i8], [40 x i8]* %9, i64 0, i64 0
  %14 = call i32 (i8*, ...) @__isoc99_scanf(i8* getelementptr inbounds ([9 x i8], [9 x i8]* @.str, i64 0, i64 0), i32* %2, i8* %13, i32* %4)
  %15 = getelementptr inbounds [40 x i8], [40 x i8]* %9, i64 0, i64 0
  %16 = call i64 @strlen(i8* %15) #3
  %17 = trunc i64 %16 to i32
  store i32 %17, i32* %7, align 4
  %18 = getelementptr inbounds [40 x i8], [40 x i8]* %9, i64 0, i64 0
  %19 = load i8, i8* %18, align 16
  %20 = sext i8 %19 to i32
  %21 = icmp eq i32 %20, 48
  br i1 %21, label %22, label %24

22:                                               ; preds = %0
  %23 = call i32 (i8*, ...) @printf(i8* getelementptr inbounds ([2 x i8], [2 x i8]* @.str.1, i64 0, i64 0))
  br label %179

24:                                               ; preds = %0
  store i32 0, i32* %5, align 4
  br label %25

25:                                               ; preds = %56, %24
  %26 = load i32, i32* %5, align 4
  %27 = load i32, i32* %7, align 4
  %28 = icmp slt i32 %26, %27
  br i1 %28, label %29, label %59

29:                                               ; preds = %25
  %30 = load i32, i32* %5, align 4
  %31 = sext i32 %30 to i64
  %32 = getelementptr inbounds [40 x i8], [40 x i8]* %9, i64 0, i64 %31
  %33 = load i8, i8* %32, align 1
  %34 = sext i8 %33 to i32
  %35 = icmp sge i32 %34, 65
  br i1 %35, label %36, label %55

36:                                               ; preds = %29
  %37 = load i32, i32* %5, align 4
  %38 = sext i32 %37 to i64
  %39 = getelementptr inbounds [40 x i8], [40 x i8]* %9, i64 0, i64 %38
  %40 = load i8, i8* %39, align 1
  %41 = sext i8 %40 to i32
  %42 = icmp sle i32 %41, 90
  br i1 %42, label %43, label %55

43:                                               ; preds = %36
  %44 = load i32, i32* %5, align 4
  %45 = sext i32 %44 to i64
  %46 = getelementptr inbounds [40 x i8], [40 x i8]* %9, i64 0, i64 %45
  %47 = load i8, i8* %46, align 1
  %48 = sext i8 %47 to i32
  %49 = sub nsw i32 %48, 65
  %50 = add nsw i32 %49, 97
  %51 = trunc i32 %50 to i8
  %52 = load i32, i32* %5, align 4
  %53 = sext i32 %52 to i64
  %54 = getelementptr inbounds [40 x i8], [40 x i8]* %9, i64 0, i64 %53
  store i8 %51, i8* %54, align 1
  br label %55

55:                                               ; preds = %43, %36, %29
  br label %56

56:                                               ; preds = %55
  %57 = load i32, i32* %5, align 4
  %58 = add nsw i32 %57, 1
  store i32 %58, i32* %5, align 4
  br label %25

59:                                               ; preds = %25
  store i32 0, i32* %5, align 4
  br label %60

60:                                               ; preds = %101, %59
  %61 = load i32, i32* %5, align 4
  %62 = load i32, i32* %7, align 4
  %63 = icmp slt i32 %61, %62
  br i1 %63, label %64, label %104

64:                                               ; preds = %60
  %65 = load i32, i32* %5, align 4
  %66 = sext i32 %65 to i64
  %67 = getelementptr inbounds [40 x i8], [40 x i8]* %9, i64 0, i64 %66
  %68 = load i8, i8* %67, align 1
  %69 = sext i8 %68 to i32
  %70 = icmp sge i32 %69, 97
  br i1 %70, label %71, label %82

71:                                               ; preds = %64
  %72 = load i32, i32* %5, align 4
  %73 = sext i32 %72 to i64
  %74 = getelementptr inbounds [40 x i8], [40 x i8]* %9, i64 0, i64 %73
  %75 = load i8, i8* %74, align 1
  %76 = sext i8 %75 to i32
  %77 = sub nsw i32 %76, 97
  %78 = add nsw i32 %77, 10
  %79 = load i32, i32* %5, align 4
  %80 = sext i32 %79 to i64
  %81 = getelementptr inbounds [40 x i32], [40 x i32]* %10, i64 0, i64 %80
  store i32 %78, i32* %81, align 4
  br label %92

82:                                               ; preds = %64
  %83 = load i32, i32* %5, align 4
  %84 = sext i32 %83 to i64
  %85 = getelementptr inbounds [40 x i8], [40 x i8]* %9, i64 0, i64 %84
  %86 = load i8, i8* %85, align 1
  %87 = sext i8 %86 to i32
  %88 = sub nsw i32 %87, 48
  %89 = load i32, i32* %5, align 4
  %90 = sext i32 %89 to i64
  %91 = getelementptr inbounds [40 x i32], [40 x i32]* %10, i64 0, i64 %90
  store i32 %88, i32* %91, align 4
  br label %92

92:                                               ; preds = %82, %71
  %93 = load i32, i32* %8, align 4
  %94 = load i32, i32* %2, align 4
  %95 = mul nsw i32 %93, %94
  %96 = load i32, i32* %5, align 4
  %97 = sext i32 %96 to i64
  %98 = getelementptr inbounds [40 x i32], [40 x i32]* %10, i64 0, i64 %97
  %99 = load i32, i32* %98, align 4
  %100 = add nsw i32 %95, %99
  store i32 %100, i32* %8, align 4
  br label %101

101:                                              ; preds = %92
  %102 = load i32, i32* %5, align 4
  %103 = add nsw i32 %102, 1
  store i32 %103, i32* %5, align 4
  br label %60

104:                                              ; preds = %60
  store i32 0, i32* %5, align 4
  br label %105

105:                                              ; preds = %149, %104
  %106 = load i32, i32* %8, align 4
  %107 = icmp ne i32 %106, 0
  br i1 %107, label %108, label %152

108:                                              ; preds = %105
  %109 = load i32, i32* %8, align 4
  %110 = load i32, i32* %4, align 4
  %111 = srem i32 %109, %110
  %112 = trunc i32 %111 to i8
  %113 = load i32, i32* %5, align 4
  %114 = sext i32 %113 to i64
  %115 = getelementptr inbounds [40 x i8], [40 x i8]* %11, i64 0, i64 %114
  store i8 %112, i8* %115, align 1
  %116 = load i32, i32* %8, align 4
  %117 = load i32, i32* %4, align 4
  %118 = sdiv i32 %116, %117
  store i32 %118, i32* %8, align 4
  %119 = load i32, i32* %5, align 4
  %120 = sext i32 %119 to i64
  %121 = getelementptr inbounds [40 x i8], [40 x i8]* %11, i64 0, i64 %120
  %122 = load i8, i8* %121, align 1
  %123 = sext i8 %122 to i32
  %124 = icmp sgt i32 %123, 9
  br i1 %124, label %125, label %137

125:                                              ; preds = %108
  %126 = load i32, i32* %5, align 4
  %127 = sext i32 %126 to i64
  %128 = getelementptr inbounds [40 x i8], [40 x i8]* %11, i64 0, i64 %127
  %129 = load i8, i8* %128, align 1
  %130 = sext i8 %129 to i32
  %131 = sub nsw i32 %130, 10
  %132 = add nsw i32 %131, 65
  %133 = trunc i32 %132 to i8
  %134 = load i32, i32* %5, align 4
  %135 = sext i32 %134 to i64
  %136 = getelementptr inbounds [40 x i8], [40 x i8]* %11, i64 0, i64 %135
  store i8 %133, i8* %136, align 1
  br label %148

137:                                              ; preds = %108
  %138 = load i32, i32* %5, align 4
  %139 = sext i32 %138 to i64
  %140 = getelementptr inbounds [40 x i8], [40 x i8]* %11, i64 0, i64 %139
  %141 = load i8, i8* %140, align 1
  %142 = sext i8 %141 to i32
  %143 = add nsw i32 %142, 48
  %144 = trunc i32 %143 to i8
  %145 = load i32, i32* %5, align 4
  %146 = sext i32 %145 to i64
  %147 = getelementptr inbounds [40 x i8], [40 x i8]* %11, i64 0, i64 %146
  store i8 %144, i8* %147, align 1
  br label %148

148:                                              ; preds = %137, %125
  br label %149

149:                                              ; preds = %148
  %150 = load i32, i32* %5, align 4
  %151 = add nsw i32 %150, 1
  store i32 %151, i32* %5, align 4
  br label %105

152:                                              ; preds = %105
  store i32 0, i32* %6, align 4
  br label %153

153:                                              ; preds = %168, %152
  %154 = load i32, i32* %6, align 4
  %155 = load i32, i32* %5, align 4
  %156 = icmp sle i32 %154, %155
  br i1 %156, label %157, label %171

157:                                              ; preds = %153
  %158 = load i32, i32* %5, align 4
  %159 = load i32, i32* %6, align 4
  %160 = sub nsw i32 %158, %159
  %161 = sub nsw i32 %160, 1
  %162 = sext i32 %161 to i64
  %163 = getelementptr inbounds [40 x i8], [40 x i8]* %11, i64 0, i64 %162
  %164 = load i8, i8* %163, align 1
  %165 = load i32, i32* %6, align 4
  %166 = sext i32 %165 to i64
  %167 = getelementptr inbounds [40 x i8], [40 x i8]* %12, i64 0, i64 %166
  store i8 %164, i8* %167, align 1
  br label %168

168:                                              ; preds = %157
  %169 = load i32, i32* %6, align 4
  %170 = add nsw i32 %169, 1
  store i32 %170, i32* %6, align 4
  br label %153

171:                                              ; preds = %153
  %172 = load i32, i32* %5, align 4
  %173 = sext i32 %172 to i64
  %174 = getelementptr inbounds [40 x i8], [40 x i8]* %12, i64 0, i64 %173
  store i8 0, i8* %174, align 1
  %175 = getelementptr inbounds [40 x i8], [40 x i8]* %12, i64 0, i64 0
  %176 = call i32 (i8*, ...) @printf(i8* getelementptr inbounds ([3 x i8], [3 x i8]* @.str.2, i64 0, i64 0), i8* %175)
  %177 = call i32 @getchar()
  %178 = call i32 @getchar()
  br label %179

179:                                              ; preds = %171, %22
  %180 = load i32, i32* %1, align 4
  ret i32 %180
}

declare dso_local i32 @__isoc99_scanf(i8*, ...) #1

; Function Attrs: nounwind readonly
declare dso_local i64 @strlen(i8*) #2

declare dso_local i32 @printf(i8*, ...) #1

declare dso_local i32 @getchar() #1


!llvm.module.flags = !{!0}
!llvm.ident = !{!1}

!0 = !{i32 1, !"wchar_size", i32 4}
!1 = !{!"clang version 10.0.0-4ubuntu1 "}
